-----BEGIN ENCRYPTED PRIVATE KEY-----
MIIFHzBJBgkqhkiG9w0BBQ0wPDAbBgkqhkiG9w0BBQwwDgQIC0VrjEx/BxsCAggA
MB0GCWCGSAFlAwQBKgQQbqy8ZkLotUa9w5JoVJ0EBASCBNCRvQ800N3GkhXAWYA0
Z4t88inLuf/ex/Wq7wBL7kBiZfBLKDJZI4QZrhT4Gbd72PHMsNFjw4984De5Q++1
5KLAr3qFy4EUo80XRyfHeBqnsegNWeBwvPpBLPPJMW/msy9tggHp4XICGu3qxTJF
mU2IupTNLq36kQN9Azl722O2Onu+foCD4we6/bWgEaOH60z38HpzT+jvQChJvEfx
ObnCbbUuKRAzK+sy1G9UG4wkJZBUFO037r1ToH+HiJR6WfN/p4Psk/q2bVFbXf1i
pPvPqZcy1XItlheVTvug8O46+Pv3n2I62V/M3I0d85yfD4h4sOK9x3Du+RhmtsQv
eCQ/V86vbxZEJaInnJ6LlcYR7+Y45S2qzemJS3JNJQ4fYARTgTWoWmFL2wkcNovm
VPqAPIOWhmvjARbnMd6pD9HaOHuC9pY9zbDsCV7WBbtZBfcFmR+s8rT8rvnFN9mi
1WmJBXHuf/qy45YgbdO8dwOBp7mSQZfzK5C1uxUtZwE+jGOu98oE0XIXt+pcnlpX
b9a2mFXq5VR/NEUU45stsax9upyeVQG7dK2ZZQvG2TiwbC6GW8YunUhQiaY+9DjE
YG5YlebWFdiIuZ6N5JIMI9u6GWa2nYcdnQHdqkaPMRSwQDAzEMkQcTmdU4nEZqoo
BZgEHnlqUBlX50ZHG+MOYKJ5X/5ifBxUOqVUQK3jsQtw6kSEUhdgiKXBAOq8pqbV
IqE7k6tZK+dFfbiMtj5EhIj2aMPWSSKAk+1aoXiJUSi24+UDq8tflJJpc9O5PHlW
PsTL8aDMexP5qIfKiiMe1vWWxXT1LW89xGyCY71QSKwPigTpH/KG+EEcLXvv3sU0
1FRuTW41dziWRv9lWN62RBF65VOzv3iLFmDeDjDoCTbxtrrlD7i13qCVjFYlZcyd
l04TTqdxV478BPFbMk3orRqjsi/jhYRORkAv1l/taN+8Qwlx4tQdL+u2GysIsfZQ
n2llnHyK3Vr49pgvuGnsiFL/F5v1/wGL6gMBnk+K+guqEqThWgAgMtXHF1HDfhIe
Jpm9hgZLElyMGWa2kAivPsqGPzmOvMY/0Ww0/IgM04EI4K6it0NY2kfBbftyTFAW
fMzsgecDYqKUT0DlBUeEuXPhmckcyUHMzP8BeytIj5ZiSbckSttdnHy9mm3nv21n
l9JeiyniHRsxCAWTTFgap4C4YQx36iVpmB9Nhbpcchqp46ZDZlwJTXrRFMP5KTeJ
M3RbgZYkmrXYbEUrmxXIdAeSoFF5BLty6qLBmaiHu2BHhZsEFpNuxZIG15kkzQ+x
U1X1AXQyIyZ8TPYcxjcr5NHZ7wlzpQf0q6p+1ud2/895711OsFRQZabzu0S5xAsW
OLkGZgczMGrOBHtBh8HGeE7qHHUeNioGlflWbodq8Dr7iGufosHHYhuAX5p02fEX
xD8HGAxJtdguEdAQr7PttAVIDF04ZoXyiqZtXM8NgFc7dBNjWwtyLGbWVp9kqMO+
y+oq0L7X96FBzcr+pgPzJrrP6DvZUT9v9RPITeKq+nrpGZHaDSkjDZq0gZs3iDTe
cc4obRfzIxOB8l6+SWQu91CjGAB0ILd2hRFEyjXywKbYtqaB/SIS7B09rNjnuDci
qURnuFnasA1eSkREsgQIVAcFKw==
-----END ENCRYPTED PRIVATE KEY-----
Certificate:
    Data:
        Version: 3 (0x2)
        Serial Number: 1 (0x1)
    Signature Algorithm: sha1WithRSAEncryption
        Issuer: DC=org, DC=simple, O=Simple Inc, OU=Simple Signing CA, CN=Simple Signing CA
        Validity
            Not Before: Dec  6 08:30:19 2020 GMT
            Not After : Dec  6 08:30:19 2022 GMT
        Subject: DC=org, DC=simple, O=Simple Inc, CN=Fred Flintstone
        Subject Public Key Info:
            Public Key Algorithm: rsaEncryption
                Public-Key: (2048 bit)
                Modulus:
                    00:d4:db:39:84:4e:24:04:c1:84:6c:49:73:39:42:
                    e8:3b:40:98:c4:61:61:de:50:e2:88:d4:da:94:a3:
                    af:89:2f:39:9c:5d:89:b6:ef:98:c8:92:f5:7f:fb:
                    d1:56:40:88:87:49:de:30:b3:15:1e:72:7d:9b:b7:
                    27:22:f2:d2:e0:42:fa:f8:85:b0:a0:70:2a:5e:45:
                    8c:e0:6d:a6:30:30:0d:33:37:bd:03:de:a8:26:4d:
                    fb:c9:8f:15:13:d9:06:af:9e:fe:5c:02:54:85:97:
                    ba:fa:a5:3b:2b:31:49:67:fd:01:44:5f:ad:76:c0:
                    c3:a2:23:13:9f:2f:41:7c:bd:92:f5:47:c8:81:28:
                    25:19:bc:e7:ed:05:fb:70:51:d3:ec:8c:12:ec:bb:
                    d4:0c:ee:19:a7:4b:f9:26:b9:98:0a:50:f7:21:85:
                    f5:ea:f8:16:34:2c:74:c7:c0:a2:a7:26:f2:3d:ab:
                    95:44:e6:ec:2b:37:13:f0:66:67:55:cf:7a:43:f7:
                    5d:97:9c:8d:09:65:f0:af:23:5b:c1:9b:93:75:67:
                    2e:56:dc:34:01:16:b0:be:54:2d:dd:fe:2e:b7:ae:
                    14:02:c5:65:8d:5f:82:ca:98:08:25:12:44:2e:61:
                    4f:bf:5e:ae:88:6f:3b:a9:70:e3:bd:3b:ed:4f:ea:
                    cb:d5
                Exponent: 65537 (0x10001)
        X509v3 extensions:
            X509v3 Key Usage: critical
                Digital Signature, Key Encipherment
            X509v3 Basic Constraints: 
                CA:FALSE
            X509v3 Extended Key Usage: 
                E-mail Protection, TLS Web Client Authentication
            X509v3 Subject Key Identifier: 
                AE:81:CB:0D:72:60:C3:5B:F8:F4:33:E9:E1:3E:DA:B4:96:DE:FA:D0
            X509v3 Authority Key Identifier: 
                keyid:E4:C3:0C:E1:9D:B7:10:6C:B8:02:A0:85:EC:87:89:25:5E:96:35:87

            X509v3 Subject Alternative Name: 
                email:fred@simple.org
    Signature Algorithm: sha1WithRSAEncryption
         5e:c8:a1:0f:8d:92:11:3a:b0:7d:fc:4a:63:bc:e7:0d:88:6a:
         c7:c7:4f:48:12:5b:36:f5:5a:c2:23:47:be:f7:36:3e:ac:d3:
         05:dc:e2:b1:41:e6:b4:a5:ec:17:2d:f3:24:a2:1c:b5:20:be:
         16:52:e0:91:03:8d:54:26:1d:29:16:28:b3:1b:b6:76:ae:2c:
         1e:7a:3e:81:e6:ad:91:dc:68:eb:92:b5:d6:59:59:89:5b:a9:
         b8:dc:1d:eb:b7:9e:43:4e:8a:8b:04:d9:80:5a:da:29:0e:4b:
         42:73:49:f6:f0:10:fc:1c:c3:9d:93:47:c8:0b:25:c7:71:0f:
         a4:b8:c0:76:cb:bf:bc:3a:8b:51:75:31:81:5f:07:8a:91:95:
         05:74:7b:bd:6d:e4:b2:53:43:f9:b1:68:a3:7a:92:54:f6:af:
         98:3d:da:3b:e8:d0:23:27:b9:66:48:01:26:d9:d3:16:de:5a:
         d0:07:f6:bf:9d:1a:88:d0:93:37:a3:97:05:08:e3:40:7d:29:
         66:fa:43:c5:e7:ff:9d:5d:57:ab:1d:4e:60:64:91:50:70:21:
         32:28:56:4b:7b:48:60:cf:6b:1d:1d:1e:16:e5:db:65:e3:75:
         17:3a:ac:d2:dd:0c:8d:7d:7e:72:fb:ba:68:7d:fc:8f:fd:89:
         17:75:2d:80
-----BEGIN CERTIFICATE-----
MIID6zCCAtOgAwIBAgIBATANBgkqhkiG9w0BAQUFADB6MRMwEQYKCZImiZPyLGQB
GRYDb3JnMRYwFAYKCZImiZPyLGQBGRYGc2ltcGxlMRMwEQYDVQQKDApTaW1wbGUg
SW5jMRowGAYDVQQLDBFTaW1wbGUgU2lnbmluZyBDQTEaMBgGA1UEAwwRU2ltcGxl
IFNpZ25pbmcgQ0EwHhcNMjAxMjA2MDgzMDE5WhcNMjIxMjA2MDgzMDE5WjBcMRMw
EQYKCZImiZPyLGQBGRYDb3JnMRYwFAYKCZImiZPyLGQBGRYGc2ltcGxlMRMwEQYD
VQQKDApTaW1wbGUgSW5jMRgwFgYDVQQDDA9GcmVkIEZsaW50c3RvbmUwggEiMA0G
CSqGSIb3DQEBAQUAA4IBDwAwggEKAoIBAQDU2zmETiQEwYRsSXM5Qug7QJjEYWHe
UOKI1NqUo6+JLzmcXYm275jIkvV/+9FWQIiHSd4wsxUecn2btyci8tLgQvr4hbCg
cCpeRYzgbaYwMA0zN70D3qgmTfvJjxUT2Qavnv5cAlSFl7r6pTsrMUln/QFEX612
wMOiIxOfL0F8vZL1R8iBKCUZvOftBftwUdPsjBLsu9QM7hmnS/kmuZgKUPchhfXq
+BY0LHTHwKKnJvI9q5VE5uwrNxPwZmdVz3pD912XnI0JZfCvI1vBm5N1Zy5W3DQB
FrC+VC3d/i63rhQCxWWNX4LKmAglEkQuYU+/Xq6IbzupcOO9O+1P6svVAgMBAAGj
gZkwgZYwDgYDVR0PAQH/BAQDAgWgMAkGA1UdEwQCMAAwHQYDVR0lBBYwFAYIKwYB
BQUHAwQGCCsGAQUFBwMCMB0GA1UdDgQWBBSugcsNcmDDW/j0M+nhPtq0lt760DAf
BgNVHSMEGDAWgBTkwwzhnbcQbLgCoIXsh4klXpY1hzAaBgNVHREEEzARgQ9mcmVk
QHNpbXBsZS5vcmcwDQYJKoZIhvcNAQEFBQADggEBAF7IoQ+NkhE6sH38SmO85w2I
asfHT0gSWzb1WsIjR773Nj6s0wXc4rFB5rSl7Bct8ySiHLUgvhZS4JEDjVQmHSkW
KLMbtnauLB56PoHmrZHcaOuStdZZWYlbqbjcHeu3nkNOiosE2YBa2ikOS0JzSfbw
EPwcw52TR8gLJcdxD6S4wHbLv7w6i1F1MYFfB4qRlQV0e71t5LJTQ/mxaKN6klT2
r5g92jvo0CMnuWZIASbZ0xbeWtAH9r+dGojQkzejlwUI40B9KWb6Q8Xn/51dV6sd
TmBkkVBwITIoVkt7SGDPax0dHhbl22XjdRc6rNLdDI19fnL7umh9/I/9iRd1LYA=
-----END CERTIFICATE-----
